; Function Attrs: nounwind uwtable
define internal void @PlanCacheSysCallback(i64 %0, i32 %1, i32 %2) #0 {
  %4 = load ptr, ptr getelementptr inbounds nuw (i8, ptr @saved_plan_list, i64 8), align 8
  %.not.i = icmp eq ptr %4, null
  %.not222934.i = icmp eq ptr %4, @saved_plan_list
  %.not2229.i = or i1 %.not.i, %.not222934.i
  br i1 %.not2229.i, label %select.unfold._crit_edge.i, label %.lr.ph.i

.lr.ph.i:                                         ; preds = %3, %select.unfold.i
  %.sroa.0.030.i = phi ptr [ %19, %select.unfold.i ], [ %4, %3 ]
  %5 = getelementptr inbounds i8, ptr %.sroa.0.030.i, i64 -5
  %6 = load i8, ptr %5, align 1, !range !4, !noundef !5
  %7 = trunc nuw i8 %6 to i1
  br i1 %7, label %8, label %select.unfold.i

8:                                                ; preds = %.lr.ph.i
  %9 = getelementptr inbounds i8, ptr %.sroa.0.030.i, i64 -144
  %10 = load ptr, ptr %9, align 8
  %.not25.i = icmp eq ptr %10, null
  br i1 %.not25.i, label %select.unfold.i, label %11

11:                                               ; preds = %8
  %12 = tail call zeroext i1 @stmt_requires_parse_analysis(ptr noundef nonnull %10) #9
  br i1 %12, label %13, label %select.unfold.i

13:                                               ; preds = %11
  store i8 0, ptr %5, align 1
  %14 = getelementptr inbounds i8, ptr %.sroa.0.030.i, i64 -16
  %15 = load ptr, ptr %14, align 8
  %.not26.i = icmp eq ptr %15, null
  br i1 %.not26.i, label %select.unfold.i, label %16

16:                                               ; preds = %13
  %17 = getelementptr inbounds nuw i8, ptr %15, i64 18
  store i8 0, ptr %17, align 2
  br label %select.unfold.i

select.unfold.i:                                  ; preds = %16, %13, %11, %8, %.lr.ph.i
  %18 = getelementptr inbounds nuw i8, ptr %.sroa.0.030.i, i64 8
  %19 = load ptr, ptr %18, align 8
  %.not22.i = icmp eq ptr %19, @saved_plan_list
  br i1 %.not22.i, label %select.unfold._crit_edge.i, label %.lr.ph.i, !llvm.loop !11

select.unfold._crit_edge.i:                       ; preds = %select.unfold.i, %3
  %20 = load ptr, ptr getelementptr inbounds nuw (i8, ptr @cached_expression_list, i64 8), align 8
  %.not23.i = icmp eq ptr %20, null
  %.not243135.i = icmp eq ptr %20, @cached_expression_list
  %.not2431.i = or i1 %.not23.i, %.not243135.i
  br i1 %.not2431.i, label %ResetPlanCache.exit, label %select.unfold27.i

select.unfold27.i:                                ; preds = %select.unfold._crit_edge.i, %select.unfold27.i
  %.sroa.0.132.i = phi ptr [ %23, %select.unfold27.i ], [ %20, %select.unfold._crit_edge.i ]
  %21 = getelementptr inbounds i8, ptr %.sroa.0.132.i, i64 -32
  store i8 0, ptr %21, align 8
  %22 = getelementptr inbounds nuw i8, ptr %.sroa.0.132.i, i64 8
  %23 = load ptr, ptr %22, align 8
  %.not24.i = icmp eq ptr %23, @cached_expression_list
  br i1 %.not24.i, label %ResetPlanCache.exit, label %select.unfold27.i, !llvm.loop !12

ResetPlanCache.exit:                              ; preds = %select.unfold27.i, %select.unfold._crit_edge.i
  ret void
}